target datalayout = "e-m:e-p270:32:32-p271:32:32-p272:64:64-i64:64-i128:128-f80:128-n8:16:32:64-S128"
target triple = "x86_64-pc-linux-gnu"

%struct.__storeu_si128 = type { <2 x i64> }
%struct.__mm_loadl_epi64_struct = type { i64 }

; Function Attrs: alwaysinline nounwind uwtable
define internal void @_mm_storeu_si128(ptr noundef %0, <2 x i64> noundef %1) #3 {
  %3 = alloca ptr, align 8
  %4 = alloca <2 x i64>, align 16
  store ptr %0, ptr %3, align 8, !tbaa !3
  store <2 x i64> %1, ptr %4, align 16, !tbaa !11
  %5 = load <2 x i64>, ptr %4, align 16, !tbaa !11
  %6 = load ptr, ptr %3, align 8, !tbaa !3
  %7 = getelementptr inbounds nuw %struct.__storeu_si128, ptr %6, i32 0, i32 0
  store <2 x i64> %5, ptr %7, align 1, !tbaa !11
  ret void
}

; Function Attrs: alwaysinline nounwind uwtable
define internal <2 x i64> @_mm_add_epi32(<2 x i64> noundef %0, <2 x i64> noundef %1) #3 {
  %3 = alloca <2 x i64>, align 16
  %4 = alloca <2 x i64>, align 16
  store <2 x i64> %0, ptr %3, align 16, !tbaa !11
  store <2 x i64> %1, ptr %4, align 16, !tbaa !11
  %5 = load <2 x i64>, ptr %3, align 16, !tbaa !11
  %6 = bitcast <2 x i64> %5 to <4 x i32>
  %7 = load <2 x i64>, ptr %4, align 16, !tbaa !11
  %8 = bitcast <2 x i64> %7 to <4 x i32>
  %9 = add <4 x i32> %6, %8
  %10 = bitcast <4 x i32> %9 to <2 x i64>
  ret <2 x i64> %10
}

; Function Attrs: alwaysinline nounwind uwtable
define internal <2 x i64> @_mm_madd_epi16(<2 x i64> noundef %0, <2 x i64> noundef %1) #3 {
  %3 = alloca <2 x i64>, align 16
  %4 = alloca <2 x i64>, align 16
  store <2 x i64> %0, ptr %3, align 16, !tbaa !11
  store <2 x i64> %1, ptr %4, align 16, !tbaa !11
  %5 = load <2 x i64>, ptr %3, align 16, !tbaa !11
  %6 = bitcast <2 x i64> %5 to <8 x i16>
  %7 = load <2 x i64>, ptr %4, align 16, !tbaa !11
  %8 = bitcast <2 x i64> %7 to <8 x i16>
  %9 = call <4 x i32> @llvm.x86.sse2.pmadd.wd(<8 x i16> %6, <8 x i16> %8)
  %10 = bitcast <4 x i32> %9 to <2 x i64>
  ret <2 x i64> %10
}

; Function Attrs: alwaysinline nounwind uwtable
define internal <2 x i64> @_mm_subs_epi16(<2 x i64> noundef %0, <2 x i64> noundef %1) #3 {
  %3 = alloca <2 x i64>, align 16
  %4 = alloca <2 x i64>, align 16
  store <2 x i64> %0, ptr %3, align 16, !tbaa !11
  store <2 x i64> %1, ptr %4, align 16, !tbaa !11
  %5 = load <2 x i64>, ptr %3, align 16, !tbaa !11
  %6 = bitcast <2 x i64> %5 to <8 x i16>
  %7 = load <2 x i64>, ptr %4, align 16, !tbaa !11
  %8 = bitcast <2 x i64> %7 to <8 x i16>
  %9 = call <8 x i16> @llvm.ssub.sat.v8i16(<8 x i16> %6, <8 x i16> %8)
  %10 = bitcast <8 x i16> %9 to <2 x i64>
  ret <2 x i64> %10
}

; Function Attrs: alwaysinline nounwind uwtable
define internal <2 x i64> @_mm_unpacklo_epi8(<2 x i64> noundef %0, <2 x i64> noundef %1) #3 {
  %3 = alloca <2 x i64>, align 16
  %4 = alloca <2 x i64>, align 16
  store <2 x i64> %0, ptr %3, align 16, !tbaa !11
  store <2 x i64> %1, ptr %4, align 16, !tbaa !11
  %5 = load <2 x i64>, ptr %3, align 16, !tbaa !11
  %6 = bitcast <2 x i64> %5 to <16 x i8>
  %7 = load <2 x i64>, ptr %4, align 16, !tbaa !11
  %8 = bitcast <2 x i64> %7 to <16 x i8>
  %9 = shufflevector <16 x i8> %6, <16 x i8> %8, <16 x i32> <i32 0, i32 16, i32 1, i32 17, i32 2, i32 18, i32 3, i32 19, i32 4, i32 20, i32 5, i32 21, i32 6, i32 22, i32 7, i32 23>
  %10 = bitcast <16 x i8> %9 to <2 x i64>
  ret <2 x i64> %10
}

; Function Attrs: alwaysinline nounwind uwtable
define internal <2 x i64> @_mm_unpacklo_epi32(<2 x i64> noundef %0, <2 x i64> noundef %1) #3 {
  %3 = alloca <2 x i64>, align 16
  %4 = alloca <2 x i64>, align 16
  store <2 x i64> %0, ptr %3, align 16, !tbaa !11
  store <2 x i64> %1, ptr %4, align 16, !tbaa !11
  %5 = load <2 x i64>, ptr %3, align 16, !tbaa !11
  %6 = bitcast <2 x i64> %5 to <4 x i32>
  %7 = load <2 x i64>, ptr %4, align 16, !tbaa !11
  %8 = bitcast <2 x i64> %7 to <4 x i32>
  %9 = shufflevector <4 x i32> %6, <4 x i32> %8, <4 x i32> <i32 0, i32 4, i32 1, i32 5>
  %10 = bitcast <4 x i32> %9 to <2 x i64>
  ret <2 x i64> %10
}

; Function Attrs: alwaysinline nounwind uwtable
define internal <2 x i64> @_mm_loadl_epi64(ptr noundef %0) #3 {
  %2 = alloca ptr, align 8
  %3 = alloca <2 x i64>, align 16
  store ptr %0, ptr %2, align 8, !tbaa !3
  %4 = load ptr, ptr %2, align 8, !tbaa !3
  %5 = getelementptr inbounds nuw %struct.__mm_loadl_epi64_struct, ptr %4, i32 0, i32 0
  %6 = load i64, ptr %5, align 1, !tbaa !11
  %7 = insertelement <2 x i64> poison, i64 %6, i32 0
  %8 = insertelement <2 x i64> %7, i64 0, i32 1
  store <2 x i64> %8, ptr %3, align 16, !tbaa !11
  %9 = load <2 x i64>, ptr %3, align 16, !tbaa !11
  ret <2 x i64> %9
}

; Function Attrs: alwaysinline nounwind uwtable
define internal <2 x i64> @_mm_setzero_si128() #3 {
  %1 = alloca <2 x i64>, align 16
  store <2 x i64> zeroinitializer, ptr %1, align 16, !tbaa !11
  %2 = load <2 x i64>, ptr %1, align 16, !tbaa !11
  ret <2 x i64> %2
}

; Function Attrs: nounwind uwtable
define internal i32 @SSE4x4_SSE2(ptr noalias noundef %0, ptr noalias noundef %1) #1 {
  %3 = alloca ptr, align 8
  %4 = alloca ptr, align 8
  %5 = alloca <2 x i64>, align 16
  %6 = alloca <2 x i64>, align 16
  %7 = alloca <2 x i64>, align 16
  %8 = alloca <2 x i64>, align 16
  %9 = alloca <2 x i64>, align 16
  %10 = alloca <2 x i64>, align 16
  %11 = alloca <2 x i64>, align 16
  %12 = alloca <2 x i64>, align 16
  %13 = alloca <2 x i64>, align 16
  %14 = alloca <2 x i64>, align 16
  %15 = alloca <2 x i64>, align 16
  %16 = alloca <2 x i64>, align 16
  %17 = alloca <2 x i64>, align 16
  %18 = alloca <2 x i64>, align 16
  %19 = alloca <2 x i64>, align 16
  %20 = alloca <2 x i64>, align 16
  %21 = alloca <2 x i64>, align 16
  %22 = alloca <2 x i64>, align 16
  %23 = alloca <2 x i64>, align 16
  %24 = alloca <2 x i64>, align 16
  %25 = alloca <2 x i64>, align 16
  %26 = alloca <2 x i64>, align 16
  %27 = alloca [4 x i32], align 16
  store ptr %0, ptr %3, align 8, !tbaa !7
  store ptr %1, ptr %4, align 8, !tbaa !7
  call void @llvm.lifetime.start.p0(i64 16, ptr %5) #11
  %28 = call <2 x i64> @_mm_setzero_si128()
  store <2 x i64> %28, ptr %5, align 16, !tbaa !11
  call void @llvm.lifetime.start.p0(i64 16, ptr %6) #11
  %29 = load ptr, ptr %3, align 8, !tbaa !7
  %30 = getelementptr inbounds i8, ptr %29, i64 0
  %31 = call <2 x i64> @_mm_loadl_epi64(ptr noundef %30)
  store <2 x i64> %31, ptr %6, align 16, !tbaa !11
  call void @llvm.lifetime.start.p0(i64 16, ptr %7) #11
  %32 = load ptr, ptr %3, align 8, !tbaa !7
  %33 = getelementptr inbounds i8, ptr %32, i64 32
  %34 = call <2 x i64> @_mm_loadl_epi64(ptr noundef %33)
  store <2 x i64> %34, ptr %7, align 16, !tbaa !11
  call void @llvm.lifetime.start.p0(i64 16, ptr %8) #11
  %35 = load ptr, ptr %3, align 8, !tbaa !7
  %36 = getelementptr inbounds i8, ptr %35, i64 64
  %37 = call <2 x i64> @_mm_loadl_epi64(ptr noundef %36)
  store <2 x i64> %37, ptr %8, align 16, !tbaa !11
  call void @llvm.lifetime.start.p0(i64 16, ptr %9) #11
  %38 = load ptr, ptr %3, align 8, !tbaa !7
  %39 = getelementptr inbounds i8, ptr %38, i64 96
  %40 = call <2 x i64> @_mm_loadl_epi64(ptr noundef %39)
  store <2 x i64> %40, ptr %9, align 16, !tbaa !11
  call void @llvm.lifetime.start.p0(i64 16, ptr %10) #11
  %41 = load ptr, ptr %4, align 8, !tbaa !7
  %42 = getelementptr inbounds i8, ptr %41, i64 0
  %43 = call <2 x i64> @_mm_loadl_epi64(ptr noundef %42)
  store <2 x i64> %43, ptr %10, align 16, !tbaa !11
  call void @llvm.lifetime.start.p0(i64 16, ptr %11) #11
  %44 = load ptr, ptr %4, align 8, !tbaa !7
  %45 = getelementptr inbounds i8, ptr %44, i64 32
  %46 = call <2 x i64> @_mm_loadl_epi64(ptr noundef %45)
  store <2 x i64> %46, ptr %11, align 16, !tbaa !11
  call void @llvm.lifetime.start.p0(i64 16, ptr %12) #11
  %47 = load ptr, ptr %4, align 8, !tbaa !7
  %48 = getelementptr inbounds i8, ptr %47, i64 64
  %49 = call <2 x i64> @_mm_loadl_epi64(ptr noundef %48)
  store <2 x i64> %49, ptr %12, align 16, !tbaa !11
  call void @llvm.lifetime.start.p0(i64 16, ptr %13) #11
  %50 = load ptr, ptr %4, align 8, !tbaa !7
  %51 = getelementptr inbounds i8, ptr %50, i64 96
  %52 = call <2 x i64> @_mm_loadl_epi64(ptr noundef %51)
  store <2 x i64> %52, ptr %13, align 16, !tbaa !11
  call void @llvm.lifetime.start.p0(i64 16, ptr %14) #11
  %53 = load <2 x i64>, ptr %6, align 16, !tbaa !11
  %54 = load <2 x i64>, ptr %7, align 16, !tbaa !11
  %55 = call <2 x i64> @_mm_unpacklo_epi32(<2 x i64> noundef %53, <2 x i64> noundef %54)
  store <2 x i64> %55, ptr %14, align 16, !tbaa !11
  call void @llvm.lifetime.start.p0(i64 16, ptr %15) #11
  %56 = load <2 x i64>, ptr %8, align 16, !tbaa !11
  %57 = load <2 x i64>, ptr %9, align 16, !tbaa !11
  %58 = call <2 x i64> @_mm_unpacklo_epi32(<2 x i64> noundef %56, <2 x i64> noundef %57)
  store <2 x i64> %58, ptr %15, align 16, !tbaa !11
  call void @llvm.lifetime.start.p0(i64 16, ptr %16) #11
  %59 = load <2 x i64>, ptr %10, align 16, !tbaa !11
  %60 = load <2 x i64>, ptr %11, align 16, !tbaa !11
  %61 = call <2 x i64> @_mm_unpacklo_epi32(<2 x i64> noundef %59, <2 x i64> noundef %60)
  store <2 x i64> %61, ptr %16, align 16, !tbaa !11
  call void @llvm.lifetime.start.p0(i64 16, ptr %17) #11
  %62 = load <2 x i64>, ptr %12, align 16, !tbaa !11
  %63 = load <2 x i64>, ptr %13, align 16, !tbaa !11
  %64 = call <2 x i64> @_mm_unpacklo_epi32(<2 x i64> noundef %62, <2 x i64> noundef %63)
  store <2 x i64> %64, ptr %17, align 16, !tbaa !11
  call void @llvm.lifetime.start.p0(i64 16, ptr %18) #11
  %65 = load <2 x i64>, ptr %14, align 16, !tbaa !11
  %66 = load <2 x i64>, ptr %5, align 16, !tbaa !11
  %67 = call <2 x i64> @_mm_unpacklo_epi8(<2 x i64> noundef %65, <2 x i64> noundef %66)
  store <2 x i64> %67, ptr %18, align 16, !tbaa !11
  call void @llvm.lifetime.start.p0(i64 16, ptr %19) #11
  %68 = load <2 x i64>, ptr %15, align 16, !tbaa !11
  %69 = load <2 x i64>, ptr %5, align 16, !tbaa !11
  %70 = call <2 x i64> @_mm_unpacklo_epi8(<2 x i64> noundef %68, <2 x i64> noundef %69)
  store <2 x i64> %70, ptr %19, align 16, !tbaa !11
  call void @llvm.lifetime.start.p0(i64 16, ptr %20) #11
  %71 = load <2 x i64>, ptr %16, align 16, !tbaa !11
  %72 = load <2 x i64>, ptr %5, align 16, !tbaa !11
  %73 = call <2 x i64> @_mm_unpacklo_epi8(<2 x i64> noundef %71, <2 x i64> noundef %72)
  store <2 x i64> %73, ptr %20, align 16, !tbaa !11
  call void @llvm.lifetime.start.p0(i64 16, ptr %21) #11
  %74 = load <2 x i64>, ptr %17, align 16, !tbaa !11
  %75 = load <2 x i64>, ptr %5, align 16, !tbaa !11
  %76 = call <2 x i64> @_mm_unpacklo_epi8(<2 x i64> noundef %74, <2 x i64> noundef %75)
  store <2 x i64> %76, ptr %21, align 16, !tbaa !11
  call void @llvm.lifetime.start.p0(i64 16, ptr %22) #11
  %77 = load <2 x i64>, ptr %18, align 16, !tbaa !11
  %78 = load <2 x i64>, ptr %20, align 16, !tbaa !11
  %79 = call <2 x i64> @_mm_subs_epi16(<2 x i64> noundef %77, <2 x i64> noundef %78)
  store <2 x i64> %79, ptr %22, align 16, !tbaa !11
  call void @llvm.lifetime.start.p0(i64 16, ptr %23) #11
  %80 = load <2 x i64>, ptr %19, align 16, !tbaa !11
  %81 = load <2 x i64>, ptr %21, align 16, !tbaa !11
  %82 = call <2 x i64> @_mm_subs_epi16(<2 x i64> noundef %80, <2 x i64> noundef %81)
  store <2 x i64> %82, ptr %23, align 16, !tbaa !11
  call void @llvm.lifetime.start.p0(i64 16, ptr %24) #11
  %83 = load <2 x i64>, ptr %22, align 16, !tbaa !11
  %84 = load <2 x i64>, ptr %22, align 16, !tbaa !11
  %85 = call <2 x i64> @_mm_madd_epi16(<2 x i64> noundef %83, <2 x i64> noundef %84)
  store <2 x i64> %85, ptr %24, align 16, !tbaa !11
  call void @llvm.lifetime.start.p0(i64 16, ptr %25) #11
  %86 = load <2 x i64>, ptr %23, align 16, !tbaa !11
  %87 = load <2 x i64>, ptr %23, align 16, !tbaa !11
  %88 = call <2 x i64> @_mm_madd_epi16(<2 x i64> noundef %86, <2 x i64> noundef %87)
  store <2 x i64> %88, ptr %25, align 16, !tbaa !11
  call void @llvm.lifetime.start.p0(i64 16, ptr %26) #11
  %89 = load <2 x i64>, ptr %24, align 16, !tbaa !11
  %90 = load <2 x i64>, ptr %25, align 16, !tbaa !11
  %91 = call <2 x i64> @_mm_add_epi32(<2 x i64> noundef %89, <2 x i64> noundef %90)
  store <2 x i64> %91, ptr %26, align 16, !tbaa !11
  call void @llvm.lifetime.start.p0(i64 16, ptr %27) #11
  %92 = getelementptr inbounds [4 x i32], ptr %27, i64 0, i64 0
  %93 = load <2 x i64>, ptr %26, align 16, !tbaa !11
  call void @_mm_storeu_si128(ptr noundef %92, <2 x i64> noundef %93)
  %94 = getelementptr inbounds [4 x i32], ptr %27, i64 0, i64 3
  %95 = load i32, ptr %94, align 4, !tbaa !9
  %96 = getelementptr inbounds [4 x i32], ptr %27, i64 0, i64 2
  %97 = load i32, ptr %96, align 8, !tbaa !9
  %98 = add nsw i32 %95, %97
  %99 = getelementptr inbounds [4 x i32], ptr %27, i64 0, i64 1
  %100 = load i32, ptr %99, align 4, !tbaa !9
  %101 = add nsw i32 %98, %100
  %102 = getelementptr inbounds [4 x i32], ptr %27, i64 0, i64 0
  %103 = load i32, ptr %102, align 16, !tbaa !9
  %104 = add nsw i32 %101, %103
  call void @llvm.lifetime.end.p0(i64 16, ptr %27) #11
  call void @llvm.lifetime.end.p0(i64 16, ptr %26) #11
  call void @llvm.lifetime.end.p0(i64 16, ptr %25) #11
  call void @llvm.lifetime.end.p0(i64 16, ptr %24) #11
  call void @llvm.lifetime.end.p0(i64 16, ptr %23) #11
  call void @llvm.lifetime.end.p0(i64 16, ptr %22) #11
  call void @llvm.lifetime.end.p0(i64 16, ptr %21) #11
  call void @llvm.lifetime.end.p0(i64 16, ptr %20) #11
  call void @llvm.lifetime.end.p0(i64 16, ptr %19) #11
  call void @llvm.lifetime.end.p0(i64 16, ptr %18) #11
  call void @llvm.lifetime.end.p0(i64 16, ptr %17) #11
  call void @llvm.lifetime.end.p0(i64 16, ptr %16) #11
  call void @llvm.lifetime.end.p0(i64 16, ptr %15) #11
  call void @llvm.lifetime.end.p0(i64 16, ptr %14) #11
  call void @llvm.lifetime.end.p0(i64 16, ptr %13) #11
  call void @llvm.lifetime.end.p0(i64 16, ptr %12) #11
  call void @llvm.lifetime.end.p0(i64 16, ptr %11) #11
  call void @llvm.lifetime.end.p0(i64 16, ptr %10) #11
  call void @llvm.lifetime.end.p0(i64 16, ptr %9) #11
  call void @llvm.lifetime.end.p0(i64 16, ptr %8) #11
  call void @llvm.lifetime.end.p0(i64 16, ptr %7) #11
  call void @llvm.lifetime.end.p0(i64 16, ptr %6) #11
  call void @llvm.lifetime.end.p0(i64 16, ptr %5) #11
  ret i32 %104
}