; Function Attrs: mustprogress nofree norecurse nosync nounwind willreturn memory(argmem: read) uwtable
define internal i32 @SSE4x4_SSE2(ptr noalias noundef readonly captures(none) %0, ptr noalias noundef readonly captures(none) %1) #8 {
  %3 = load i64, ptr %0, align 1, !tbaa !14
  %4 = insertelement <2 x i64> poison, i64 %3, i64 0
  %5 = getelementptr inbounds nuw i8, ptr %0, i64 32
  %6 = load i64, ptr %5, align 1, !tbaa !14
  %7 = insertelement <2 x i64> poison, i64 %6, i64 0
  %8 = getelementptr inbounds nuw i8, ptr %0, i64 64
  %9 = load i64, ptr %8, align 1, !tbaa !14
  %10 = insertelement <2 x i64> poison, i64 %9, i64 0
  %11 = getelementptr inbounds nuw i8, ptr %0, i64 96
  %12 = load i64, ptr %11, align 1, !tbaa !14
  %13 = insertelement <2 x i64> poison, i64 %12, i64 0
  %14 = load i64, ptr %1, align 1, !tbaa !14
  %15 = insertelement <2 x i64> poison, i64 %14, i64 0
  %16 = getelementptr inbounds nuw i8, ptr %1, i64 32
  %17 = load i64, ptr %16, align 1, !tbaa !14
  %18 = insertelement <2 x i64> poison, i64 %17, i64 0
  %19 = getelementptr inbounds nuw i8, ptr %1, i64 64
  %20 = load i64, ptr %19, align 1, !tbaa !14
  %21 = insertelement <2 x i64> poison, i64 %20, i64 0
  %22 = getelementptr inbounds nuw i8, ptr %1, i64 96
  %23 = load i64, ptr %22, align 1, !tbaa !14
  %24 = insertelement <2 x i64> poison, i64 %23, i64 0
  %25 = bitcast <2 x i64> %4 to <4 x i32>
  %26 = bitcast <2 x i64> %7 to <4 x i32>
  %27 = shufflevector <4 x i32> %25, <4 x i32> %26, <4 x i32> <i32 0, i32 4, i32 poison, i32 poison>
  %28 = bitcast <2 x i64> %10 to <4 x i32>
  %29 = bitcast <2 x i64> %13 to <4 x i32>
  %30 = shufflevector <4 x i32> %28, <4 x i32> %29, <4 x i32> <i32 0, i32 4, i32 poison, i32 poison>
  %31 = bitcast <2 x i64> %15 to <4 x i32>
  %32 = bitcast <2 x i64> %18 to <4 x i32>
  %33 = shufflevector <4 x i32> %31, <4 x i32> %32, <4 x i32> <i32 0, i32 4, i32 poison, i32 poison>
  %34 = bitcast <2 x i64> %21 to <4 x i32>
  %35 = bitcast <2 x i64> %24 to <4 x i32>
  %36 = shufflevector <4 x i32> %34, <4 x i32> %35, <4 x i32> <i32 0, i32 4, i32 poison, i32 poison>
  %37 = bitcast <4 x i32> %27 to <16 x i8>
  %38 = shufflevector <16 x i8> %37, <16 x i8> <i8 0, i8 0, i8 0, i8 0, i8 0, i8 0, i8 0, i8 0, i8 poison, i8 poison, i8 poison, i8 poison, i8 poison, i8 poison, i8 poison, i8 poison>, <16 x i32> <i32 0, i32 16, i32 1, i32 17, i32 2, i32 18, i32 3, i32 19, i32 4, i32 20, i32 5, i32 21, i32 6, i32 22, i32 7, i32 23>
  %39 = bitcast <4 x i32> %30 to <16 x i8>
  %40 = shufflevector <16 x i8> %39, <16 x i8> <i8 0, i8 0, i8 0, i8 0, i8 0, i8 0, i8 0, i8 0, i8 poison, i8 poison, i8 poison, i8 poison, i8 poison, i8 poison, i8 poison, i8 poison>, <16 x i32> <i32 0, i32 16, i32 1, i32 17, i32 2, i32 18, i32 3, i32 19, i32 4, i32 20, i32 5, i32 21, i32 6, i32 22, i32 7, i32 23>
  %41 = bitcast <4 x i32> %33 to <16 x i8>
  %42 = shufflevector <16 x i8> %41, <16 x i8> <i8 0, i8 0, i8 0, i8 0, i8 0, i8 0, i8 0, i8 0, i8 poison, i8 poison, i8 poison, i8 poison, i8 poison, i8 poison, i8 poison, i8 poison>, <16 x i32> <i32 0, i32 16, i32 1, i32 17, i32 2, i32 18, i32 3, i32 19, i32 4, i32 20, i32 5, i32 21, i32 6, i32 22, i32 7, i32 23>
  %43 = bitcast <4 x i32> %36 to <16 x i8>
  %44 = shufflevector <16 x i8> %43, <16 x i8> <i8 0, i8 0, i8 0, i8 0, i8 0, i8 0, i8 0, i8 0, i8 poison, i8 poison, i8 poison, i8 poison, i8 poison, i8 poison, i8 poison, i8 poison>, <16 x i32> <i32 0, i32 16, i32 1, i32 17, i32 2, i32 18, i32 3, i32 19, i32 4, i32 20, i32 5, i32 21, i32 6, i32 22, i32 7, i32 23>
  %45 = bitcast <16 x i8> %38 to <8 x i16>
  %46 = bitcast <16 x i8> %42 to <8 x i16>
  %47 = sub nsw <8 x i16> %45, %46
  %48 = bitcast <16 x i8> %40 to <8 x i16>
  %49 = bitcast <16 x i8> %44 to <8 x i16>
  %50 = sub nsw <8 x i16> %48, %49
  %51 = tail call <4 x i32> @llvm.x86.sse2.pmadd.wd(<8 x i16> %47, <8 x i16> %47)
  %52 = tail call <4 x i32> @llvm.x86.sse2.pmadd.wd(<8 x i16> %50, <8 x i16> %50)
  %53 = add <4 x i32> %52, %51
  %54 = shufflevector <4 x i32> %53, <4 x i32> poison, <4 x i32> <i32 3, i32 poison, i32 poison, i32 poison>
  %55 = shufflevector <4 x i32> %53, <4 x i32> poison, <4 x i32> <i32 2, i32 poison, i32 poison, i32 poison>
  %56 = add nsw <4 x i32> %54, %55
  %57 = shufflevector <4 x i32> %53, <4 x i32> poison, <4 x i32> <i32 1, i32 poison, i32 poison, i32 poison>
  %shift36 = add nsw <4 x i32> %56, %57
  %58 = add nsw <4 x i32> %shift36, %53
  %59 = extractelement <4 x i32> %58, i64 0
  ret i32 %59
}